; Function Attrs: mustprogress nounwind uwtable
define internal void @_ZN12_GLOBAL__N_125AArch64CompressJumpTablesD0Ev(ptr noundef nonnull align 8 dereferenceable(120) %0) unnamed_addr #0 align 2 {
  store ptr getelementptr inbounds inrange(-16, 176) (i8, ptr @_ZTVN12_GLOBAL__N_125AArch64CompressJumpTablesE, i64 16), ptr %0, align 8
  %2 = getelementptr inbounds nuw i8, ptr %0, i64 72
  %3 = tail call noundef i64 @_ZNK4llvm15SmallVectorBaseIjE4sizeEv(ptr noundef nonnull align 8 dereferenceable(16) %2) #13
  %4 = load ptr, ptr %2, align 8
  %5 = getelementptr inbounds i8, ptr %0, i64 88
  %6 = icmp eq ptr %4, %5
  br i1 %6, label %_ZN12_GLOBAL__N_125AArch64CompressJumpTablesD2Ev.exit, label %7

7:                                                ; preds = %1
  tail call void @free(ptr noundef %4) #13
  br label %_ZN12_GLOBAL__N_125AArch64CompressJumpTablesD2Ev.exit

_ZN12_GLOBAL__N_125AArch64CompressJumpTablesD2Ev.exit: ; preds = %1, %7
  tail call void @_ZN4llvm4PassD2Ev(ptr noundef nonnull align 8 dereferenceable(28) %0) #13
  tail call void @_ZdlPvm(ptr noundef nonnull %0, i64 noundef 120) #16
  ret void
}